target datalayout = "e-m:e-p270:32:32-p271:32:32-p272:64:64-i64:64-i128:128-f80:128-n8:16:32:64-S128"
target triple = "x86_64-pc-linux-gnu"

%"class.pbrt::Transform" = type { %"class.pbrt::SquareMatrix.2", %"class.pbrt::SquareMatrix.2" }
%"class.pbrt::SquareMatrix.2" = type { [4 x [4 x float]] }
%"struct.pbrt::EvaluateMaterialCallback" = type { i32, ptr, %"class.pbrt::Transform" }
%"class.pbrt::WavefrontPathIntegrator" = type { i8, i8, i8, %"class.pstd::array", %"class.pstd::array", ptr, ptr, %"class.pbrt::Filter", %"class.pbrt::Film", %"class.pbrt::Sampler", %"class.pbrt::Camera", ptr, %"class.pbrt::LightSampler", i32, i32, i8, i32, i32, %"struct.pbrt::SOA", [2 x ptr], ptr, ptr, ptr, ptr, ptr, ptr, ptr, ptr, ptr, ptr, ptr, ptr, ptr, ptr }
%"class.pstd::array" = type { [12 x i8] }
%"class.pbrt::Filter" = type { %"class.pbrt::TaggedPointer" }
%"class.pbrt::TaggedPointer" = type { i64 }
%"class.pbrt::Film" = type { %"class.pbrt::TaggedPointer.4" }
%"class.pbrt::TaggedPointer.4" = type { i64 }
%"class.pbrt::Sampler" = type { %"class.pbrt::TaggedPointer.5" }
%"class.pbrt::TaggedPointer.5" = type { i64 }
%"class.pbrt::Camera" = type { %"class.pbrt::TaggedPointer.6" }
%"class.pbrt::TaggedPointer.6" = type { i64 }
%"class.pbrt::LightSampler" = type { %"class.pbrt::TaggedPointer.7" }
%"class.pbrt::TaggedPointer.7" = type { i64 }
%"struct.pbrt::SOA" = type { i32, ptr, %"struct.pbrt::SOA.8", %"struct.pbrt::SOA.9", %"struct.pbrt::SOA.10", %"struct.pbrt::SOA.10", %"struct.pbrt::SOA.11", %"struct.pbrt::SOA.16" }
%"struct.pbrt::SOA.8" = type { i32, ptr, ptr }
%"struct.pbrt::SOA.9" = type { i32, ptr, ptr, ptr, ptr }
%"struct.pbrt::SOA.10" = type { i32, ptr, ptr }
%"struct.pbrt::SOA.11" = type { i32, ptr, %"struct.pbrt::SOA.12", %"struct.pbrt::SOA.13", %"struct.pbrt::SOA.13", %"struct.pbrt::SOA.14", ptr, %"struct.pbrt::SOA.15", %"struct.pbrt::SOA.15", %"struct.pbrt::SOA.10" }
%"struct.pbrt::SOA.12" = type { i32, ptr, ptr, ptr }
%"struct.pbrt::SOA.13" = type { i32, ptr, ptr, ptr }
%"struct.pbrt::SOA.14" = type { i32, ptr, ptr }
%"struct.pbrt::SOA.15" = type { i32, ptr, ptr, ptr }
%"struct.pbrt::SOA.16" = type { ptr, ptr, ptr, ptr, ptr }

; Function Attrs: mustprogress nounwind uwtable
define linkonce_odr dso_local noundef nonnull align 1 dereferenceable(1) ptr @_ZN4pstd5arrayIbLi12EEixEm(ptr noundef nonnull align 1 dereferenceable(12) %0, i64 noundef %1) #8 comdat align 2 {
  %3 = alloca ptr, align 8
  %4 = alloca i64, align 8
  store ptr %0, ptr %3, align 8, !tbaa !80
  store i64 %1, ptr %4, align 8, !tbaa !28
  %5 = load ptr, ptr %3, align 8
  %6 = getelementptr inbounds nuw %"class.pstd::array", ptr %5, i32 0, i32 0
  %7 = load i64, ptr %4, align 8, !tbaa !28
  %8 = getelementptr inbounds nuw [12 x i8], ptr %6, i64 0, i64 %7
  ret ptr %8
}

; Function Attrs: mustprogress nounwind uwtable
define linkonce_odr dso_local noundef i32 @_ZN4pbrt13TaggedPointerIJNS_21CoatedDiffuseMaterialENS_23CoatedConductorMaterialENS_17ConductorMaterialENS_18DielectricMaterialENS_15DiffuseMaterialENS_27DiffuseTransmissionMaterialENS_12HairMaterialENS_16MeasuredMaterialENS_18SubsurfaceMaterialENS_22ThinDielectricMaterialENS_11MixMaterialEEE9TypeIndexIS1_EEjv() #8 comdat align 2 {
  ret i32 1
}

; Function Attrs: mustprogress uwtable
define linkonce_odr dso_local void @_ZN4pbrt23WavefrontPathIntegrator23EvaluateMaterialAndBSDFINS_21CoatedDiffuseMaterialEEEviNS_9TransformE(ptr noundef nonnull align 8 dereferenceable(648) %0, i32 noundef %1, ptr noundef byval(%"class.pbrt::Transform") align 8 %2) #1 comdat align 2 {
  %4 = alloca ptr, align 8
  %5 = alloca i32, align 4
  %6 = alloca i32, align 4
  %7 = alloca %"class.pbrt::Transform", align 8
  %8 = alloca %"class.pbrt::Transform", align 8
  store ptr %0, ptr %4, align 8, !tbaa !14
  store i32 %1, ptr %5, align 4, !tbaa !16
  %9 = load ptr, ptr %4, align 8
  call void @llvm.lifetime.start.p0(i64 4, ptr %6) #19
  %10 = call noundef i32 @_ZN4pbrt13TaggedPointerIJNS_21CoatedDiffuseMaterialENS_23CoatedConductorMaterialENS_17ConductorMaterialENS_18DielectricMaterialENS_15DiffuseMaterialENS_27DiffuseTransmissionMaterialENS_12HairMaterialENS_16MeasuredMaterialENS_18SubsurfaceMaterialENS_22ThinDielectricMaterialENS_11MixMaterialEEE9TypeIndexIS1_EEjv()
  store i32 %10, ptr %6, align 4, !tbaa !16
  %11 = getelementptr inbounds nuw %"class.pbrt::WavefrontPathIntegrator", ptr %9, i32 0, i32 3
  %12 = load i32, ptr %6, align 4, !tbaa !16
  %13 = sext i32 %12 to i64
  %14 = call noundef nonnull align 1 dereferenceable(1) ptr @_ZN4pstd5arrayIbLi12EEixEm(ptr noundef nonnull align 1 dereferenceable(12) %11, i64 noundef %13)
  %15 = load i8, ptr %14, align 1, !tbaa !34, !range !36, !noundef !37
  %16 = trunc i8 %15 to i1
  br i1 %16, label %17, label %21

17:                                               ; preds = %3
  %18 = getelementptr inbounds nuw %"class.pbrt::WavefrontPathIntegrator", ptr %9, i32 0, i32 25
  %19 = load ptr, ptr %18, align 8, !tbaa !38
  call void @llvm.memcpy.p0.p0.i64(ptr align 4 %7, ptr align 8 %2, i64 128, i1 false), !tbaa.struct !23
  %20 = load i32, ptr %5, align 4, !tbaa !16
  call void @_ZN4pbrt23WavefrontPathIntegrator23EvaluateMaterialAndBSDFINS_21CoatedDiffuseMaterialENS_21BasicTextureEvaluatorEEEvPNS_14MultiWorkQueueINS_8TypePackIJNS_20MaterialEvalWorkItemIS2_EENS6_INS_23CoatedConductorMaterialEEENS6_INS_17ConductorMaterialEEENS6_INS_18DielectricMaterialEEENS6_INS_15DiffuseMaterialEEENS6_INS_27DiffuseTransmissionMaterialEEENS6_INS_12HairMaterialEEENS6_INS_16MeasuredMaterialEEENS6_INS_18SubsurfaceMaterialEEENS6_INS_22ThinDielectricMaterialEEENS6_INS_11MixMaterialEEEEEEEENS_9TransformEi(ptr noundef nonnull align 8 dereferenceable(648) %9, ptr noundef %19, ptr noundef byval(%"class.pbrt::Transform") align 8 %7, i32 noundef %20)
  br label %21

21:                                               ; preds = %17, %3
  %22 = getelementptr inbounds nuw %"class.pbrt::WavefrontPathIntegrator", ptr %9, i32 0, i32 4
  %23 = load i32, ptr %6, align 4, !tbaa !16
  %24 = sext i32 %23 to i64
  %25 = call noundef nonnull align 1 dereferenceable(1) ptr @_ZN4pstd5arrayIbLi12EEixEm(ptr noundef nonnull align 1 dereferenceable(12) %22, i64 noundef %24)
  %26 = load i8, ptr %25, align 1, !tbaa !34, !range !36, !noundef !37
  %27 = trunc i8 %26 to i1
  br i1 %27, label %28, label %32

28:                                               ; preds = %21
  %29 = getelementptr inbounds nuw %"class.pbrt::WavefrontPathIntegrator", ptr %9, i32 0, i32 26
  %30 = load ptr, ptr %29, align 8, !tbaa !79
  call void @llvm.memcpy.p0.p0.i64(ptr align 4 %8, ptr align 8 %2, i64 128, i1 false), !tbaa.struct !23
  %31 = load i32, ptr %5, align 4, !tbaa !16
  call void @_ZN4pbrt23WavefrontPathIntegrator23EvaluateMaterialAndBSDFINS_21CoatedDiffuseMaterialENS_25UniversalTextureEvaluatorEEEvPNS_14MultiWorkQueueINS_8TypePackIJNS_20MaterialEvalWorkItemIS2_EENS6_INS_23CoatedConductorMaterialEEENS6_INS_17ConductorMaterialEEENS6_INS_18DielectricMaterialEEENS6_INS_15DiffuseMaterialEEENS6_INS_27DiffuseTransmissionMaterialEEENS6_INS_12HairMaterialEEENS6_INS_16MeasuredMaterialEEENS6_INS_18SubsurfaceMaterialEEENS6_INS_22ThinDielectricMaterialEEENS6_INS_11MixMaterialEEEEEEEENS_9TransformEi(ptr noundef nonnull align 8 dereferenceable(648) %9, ptr noundef %30, ptr noundef byval(%"class.pbrt::Transform") align 8 %8, i32 noundef %31)
  br label %32

32:                                               ; preds = %28, %21
  call void @llvm.lifetime.end.p0(i64 4, ptr %6) #19
  ret void
}

; Function Attrs: mustprogress uwtable
define linkonce_odr dso_local void @_ZN4pbrt24EvaluateMaterialCallbackclINS_21CoatedDiffuseMaterialEEEvv(ptr noundef nonnull align 8 dereferenceable(144) %0) #1 comdat align 2 {
  %2 = alloca ptr, align 8
  %3 = alloca %"class.pbrt::Transform", align 8
  store ptr %0, ptr %2, align 8, !tbaa !32
  %4 = load ptr, ptr %2, align 8
  %5 = getelementptr inbounds nuw %"struct.pbrt::EvaluateMaterialCallback", ptr %4, i32 0, i32 1
  %6 = load ptr, ptr %5, align 8, !tbaa !22
  %7 = getelementptr inbounds nuw %"struct.pbrt::EvaluateMaterialCallback", ptr %4, i32 0, i32 0
  %8 = load i32, ptr %7, align 8, !tbaa !18
  %9 = getelementptr inbounds nuw %"struct.pbrt::EvaluateMaterialCallback", ptr %4, i32 0, i32 2
  call void @llvm.memcpy.p0.p0.i64(ptr align 4 %3, ptr align 8 %9, i64 128, i1 false), !tbaa.struct !23
  call void @_ZN4pbrt23WavefrontPathIntegrator23EvaluateMaterialAndBSDFINS_21CoatedDiffuseMaterialEEEviNS_9TransformE(ptr noundef nonnull align 8 dereferenceable(648) %6, i32 noundef %8, ptr noundef byval(%"class.pbrt::Transform") align 8 %3)
  ret void
}

; Function Attrs: mustprogress uwtable
define linkonce_odr dso_local void @_ZN4pbrt11ForEachTypeINS_24EvaluateMaterialCallbackENS_21CoatedDiffuseMaterialEJNS_23CoatedConductorMaterialENS_17ConductorMaterialENS_18DielectricMaterialENS_15DiffuseMaterialENS_27DiffuseTransmissionMaterialENS_12HairMaterialENS_16MeasuredMaterialENS_18SubsurfaceMaterialENS_22ThinDielectricMaterialENS_11MixMaterialEEEEvT_NS_8TypePackIJT0_DpT1_EEE(ptr noundef byval(%"struct.pbrt::EvaluateMaterialCallback") align 8 %0) #1 comdat {
  %2 = alloca %"struct.pbrt::EvaluateMaterialCallback", align 8
  call void @_ZN4pbrt24EvaluateMaterialCallbackclINS_21CoatedDiffuseMaterialEEEvv(ptr noundef nonnull align 8 dereferenceable(144) %0)
  call void @llvm.memcpy.p0.p0.i64(ptr align 8 %2, ptr align 8 %0, i64 144, i1 false), !tbaa.struct !25
  call void @_ZN4pbrt11ForEachTypeINS_24EvaluateMaterialCallbackENS_23CoatedConductorMaterialEJNS_17ConductorMaterialENS_18DielectricMaterialENS_15DiffuseMaterialENS_27DiffuseTransmissionMaterialENS_12HairMaterialENS_16MeasuredMaterialENS_18SubsurfaceMaterialENS_22ThinDielectricMaterialENS_11MixMaterialEEEEvT_NS_8TypePackIJT0_DpT1_EEE(ptr noundef byval(%"struct.pbrt::EvaluateMaterialCallback") align 8 %2)
  ret void
}

; Function Attrs: mustprogress uwtable
define dso_local void @_ZN4pbrt23WavefrontPathIntegrator25EvaluateMaterialsAndBSDFsEiNS_9TransformE(ptr noundef nonnull align 8 dereferenceable(648) %0, i32 noundef %1, ptr noundef byval(%"class.pbrt::Transform") align 8 %2) #1 align 2 {
  %4 = alloca ptr, align 8
  %5 = alloca i32, align 4
  %6 = alloca %"struct.pbrt::EvaluateMaterialCallback", align 8
  store ptr %0, ptr %4, align 8, !tbaa !14
  store i32 %1, ptr %5, align 4, !tbaa !16
  %7 = load ptr, ptr %4, align 8
  %8 = getelementptr inbounds nuw %"struct.pbrt::EvaluateMaterialCallback", ptr %6, i32 0, i32 0
  %9 = load i32, ptr %5, align 4, !tbaa !16
  store i32 %9, ptr %8, align 8, !tbaa !18
  %10 = getelementptr inbounds nuw %"struct.pbrt::EvaluateMaterialCallback", ptr %6, i32 0, i32 1
  store ptr %7, ptr %10, align 8, !tbaa !22
  %11 = getelementptr inbounds nuw %"struct.pbrt::EvaluateMaterialCallback", ptr %6, i32 0, i32 2
  call void @llvm.memcpy.p0.p0.i64(ptr align 8 %11, ptr align 8 %2, i64 128, i1 false), !tbaa.struct !23
  call void @_ZN4pbrt11ForEachTypeINS_24EvaluateMaterialCallbackENS_21CoatedDiffuseMaterialEJNS_23CoatedConductorMaterialENS_17ConductorMaterialENS_18DielectricMaterialENS_15DiffuseMaterialENS_27DiffuseTransmissionMaterialENS_12HairMaterialENS_16MeasuredMaterialENS_18SubsurfaceMaterialENS_22ThinDielectricMaterialENS_11MixMaterialEEEEvT_NS_8TypePackIJT0_DpT1_EEE(ptr noundef byval(%"struct.pbrt::EvaluateMaterialCallback") align 8 %6)
  ret void
}