; Function Attrs: mustprogress uwtable
define dso_local void @_ZN4pbrt23WavefrontPathIntegrator25EvaluateMaterialsAndBSDFsEiNS_9TransformE(ptr noundef nonnull align 8 dereferenceable(648) %0, i32 noundef %1, ptr noundef readonly byval(%"class.pbrt::Transform") align 8 captures(none) %2) local_unnamed_addr #2 align 2 {
  %4 = alloca %"struct.pbrt::EvaluateMaterialCallback", align 8
  %.sroa.3.0..sroa_idx = getelementptr inbounds nuw i8, ptr %4, i64 16
  call void @llvm.lifetime.start.p0(i64 144, ptr nonnull %4)
  call void @llvm.memcpy.p0.p0.i64(ptr noundef nonnull align 8 dereferenceable(128) %.sroa.3.0..sroa_idx, ptr noundef nonnull align 8 dereferenceable(128) %2, i64 128, i1 false)
  store i32 %1, ptr %4, align 8
  %.sroa.21.0..sroa_idx = getelementptr inbounds nuw i8, ptr %4, i64 8
  store ptr %0, ptr %.sroa.21.0..sroa_idx, align 8
  %5 = getelementptr inbounds nuw i8, ptr %0, i64 4
  %6 = load i8, ptr %5, align 4, !tbaa !4, !range !8, !noundef !9
  %7 = trunc nuw i8 %6 to i1
  br i1 %7, label %8, label %11

8:                                                ; preds = %3
  %9 = getelementptr inbounds nuw i8, ptr %0, i64 576
  %10 = load ptr, ptr %9, align 8, !tbaa !10
  tail call void @_ZN4pbrt23WavefrontPathIntegrator23EvaluateMaterialAndBSDFINS_21CoatedDiffuseMaterialENS_21BasicTextureEvaluatorEEEvPNS_14MultiWorkQueueINS_8TypePackIJNS_20MaterialEvalWorkItemIS2_EENS6_INS_23CoatedConductorMaterialEEENS6_INS_17ConductorMaterialEEENS6_INS_18DielectricMaterialEEENS6_INS_15DiffuseMaterialEEENS6_INS_27DiffuseTransmissionMaterialEEENS6_INS_12HairMaterialEEENS6_INS_16MeasuredMaterialEEENS6_INS_18SubsurfaceMaterialEEENS6_INS_22ThinDielectricMaterialEEENS6_INS_11MixMaterialEEEEEEEENS_9TransformEi(ptr noundef nonnull align 8 dereferenceable(648) %0, ptr noundef %10, ptr noundef nonnull byval(%"class.pbrt::Transform") align 8 %2, i32 noundef %1)
  br label %11

11:                                               ; preds = %8, %3
  %12 = getelementptr inbounds nuw i8, ptr %0, i64 16
  %13 = load i8, ptr %12, align 8, !tbaa !4, !range !8, !noundef !9
  %14 = trunc nuw i8 %13 to i1
  br i1 %14, label %15, label %_ZN4pbrt11ForEachTypeINS_24EvaluateMaterialCallbackENS_21CoatedDiffuseMaterialEJNS_23CoatedConductorMaterialENS_17ConductorMaterialENS_18DielectricMaterialENS_15DiffuseMaterialENS_27DiffuseTransmissionMaterialENS_12HairMaterialENS_16MeasuredMaterialENS_18SubsurfaceMaterialENS_22ThinDielectricMaterialENS_11MixMaterialEEEEvT_NS_8TypePackIJT0_DpT1_EEE.exit

15:                                               ; preds = %11
  %16 = getelementptr inbounds nuw i8, ptr %0, i64 584
  %17 = load ptr, ptr %16, align 8, !tbaa !55
  tail call void @_ZN4pbrt23WavefrontPathIntegrator23EvaluateMaterialAndBSDFINS_21CoatedDiffuseMaterialENS_25UniversalTextureEvaluatorEEEvPNS_14MultiWorkQueueINS_8TypePackIJNS_20MaterialEvalWorkItemIS2_EENS6_INS_23CoatedConductorMaterialEEENS6_INS_17ConductorMaterialEEENS6_INS_18DielectricMaterialEEENS6_INS_15DiffuseMaterialEEENS6_INS_27DiffuseTransmissionMaterialEEENS6_INS_12HairMaterialEEENS6_INS_16MeasuredMaterialEEENS6_INS_18SubsurfaceMaterialEEENS6_INS_22ThinDielectricMaterialEEENS6_INS_11MixMaterialEEEEEEEENS_9TransformEi(ptr noundef nonnull align 8 dereferenceable(648) %0, ptr noundef %17, ptr noundef nonnull byval(%"class.pbrt::Transform") align 8 %2, i32 noundef %1)
  br label %_ZN4pbrt11ForEachTypeINS_24EvaluateMaterialCallbackENS_21CoatedDiffuseMaterialEJNS_23CoatedConductorMaterialENS_17ConductorMaterialENS_18DielectricMaterialENS_15DiffuseMaterialENS_27DiffuseTransmissionMaterialENS_12HairMaterialENS_16MeasuredMaterialENS_18SubsurfaceMaterialENS_22ThinDielectricMaterialENS_11MixMaterialEEEEvT_NS_8TypePackIJT0_DpT1_EEE.exit

_ZN4pbrt11ForEachTypeINS_24EvaluateMaterialCallbackENS_21CoatedDiffuseMaterialEJNS_23CoatedConductorMaterialENS_17ConductorMaterialENS_18DielectricMaterialENS_15DiffuseMaterialENS_27DiffuseTransmissionMaterialENS_12HairMaterialENS_16MeasuredMaterialENS_18SubsurfaceMaterialENS_22ThinDielectricMaterialENS_11MixMaterialEEEEvT_NS_8TypePackIJT0_DpT1_EEE.exit: ; preds = %11, %15
  tail call void @_ZN4pbrt11ForEachTypeINS_24EvaluateMaterialCallbackENS_23CoatedConductorMaterialEJNS_17ConductorMaterialENS_18DielectricMaterialENS_15DiffuseMaterialENS_27DiffuseTransmissionMaterialENS_12HairMaterialENS_16MeasuredMaterialENS_18SubsurfaceMaterialENS_22ThinDielectricMaterialENS_11MixMaterialEEEEvT_NS_8TypePackIJT0_DpT1_EEE(ptr noundef nonnull byval(%"struct.pbrt::EvaluateMaterialCallback") align 8 %4)
  call void @llvm.lifetime.end.p0(i64 144, ptr nonnull %4)
  ret void
}